target datalayout = "e-m:e-p270:32:32-p271:32:32-p272:64:64-i64:64-i128:128-f80:128-n8:16:32:64-S128"
target triple = "x86_64-pc-linux-gnu"

%"class.std::__cxx11::basic_string" = type { %"struct.std::__cxx11::basic_string<char>::_Alloc_hider", i64, %union.anon }
%"struct.std::__cxx11::basic_string<char>::_Alloc_hider" = type { ptr }
%union.anon = type { i64, [8 x i8] }
%"class.(anonymous namespace)::Helper" = type { ptr, ptr, %"class.std::__cxx11::basic_string" }

; Function Attrs: mustprogress uwtable
define internal noundef zeroext i1 @_ZNK12_GLOBAL__N_16Helper12CheckCMP0006ERb(ptr noundef nonnull align 8 dereferenceable(48) %0, ptr noundef nonnull align 1 dereferenceable(1) %1) #6 align 2 personality ptr @__gxx_personality_v0 {
  %3 = alloca i1, align 1
  %4 = alloca ptr, align 8
  %5 = alloca ptr, align 8
  %6 = alloca %"class.std::__cxx11::basic_string", align 8
  %7 = alloca ptr, align 8
  %8 = alloca i32, align 4
  %9 = alloca %"class.std::__cxx11::basic_string", align 8
  store ptr %0, ptr %4, align 8
  store ptr %1, ptr %5, align 8
  %10 = load ptr, ptr %4, align 8
  %11 = getelementptr inbounds %"class.(anonymous namespace)::Helper", ptr %10, i32 0, i32 1
  %12 = load ptr, ptr %11, align 8
  %13 = call noundef i32 @_ZNK10cmMakefile15GetPolicyStatusEN10cmPolicies8PolicyIDEb(ptr noundef nonnull align 8 dereferenceable(3520) %12, i32 noundef 6, i1 noundef zeroext false)
  switch i32 %13, label %33 [
    i32 1, label %14
    i32 0, label %18
    i32 2, label %23
    i32 3, label %24
    i32 4, label %24
  ]

14:                                               ; preds = %2
  %15 = getelementptr inbounds %"class.(anonymous namespace)::Helper", ptr %10, i32 0, i32 1
  %16 = load ptr, ptr %15, align 8
  call void @_ZN10cmPolicies16GetPolicyWarningB5cxx11ENS_8PolicyIDE(ptr dead_on_unwind writable sret(%"class.std::__cxx11::basic_string") align 8 %6, i32 noundef 6)
  invoke void @_ZNK10cmMakefile12IssueMessageE11MessageTypeRKNSt7__cxx1112basic_stringIcSt11char_traitsIcESaIcEEE(ptr noundef nonnull align 8 dereferenceable(3520) %16, i32 noundef 0, ptr noundef nonnull align 8 dereferenceable(32) %6)
          to label %17 unwind label %19

17:                                               ; preds = %14
  call void @_ZNSt7__cxx1112basic_stringIcSt11char_traitsIcESaIcEED1Ev(ptr noundef nonnull align 8 dereferenceable(32) %6) #3
  br label %18

18:                                               ; preds = %17, %2
  store i1 true, ptr %3, align 1
  br label %34

19:                                               ; preds = %14
  %20 = landingpad { ptr, i32 }
          cleanup
  %21 = extractvalue { ptr, i32 } %20, 0
  store ptr %21, ptr %7, align 8
  %22 = extractvalue { ptr, i32 } %20, 1
  store i32 %22, ptr %8, align 4
  call void @_ZNSt7__cxx1112basic_stringIcSt11char_traitsIcESaIcEED1Ev(ptr noundef nonnull align 8 dereferenceable(32) %6) #3
  br label %36

23:                                               ; preds = %2
  br label %33

24:                                               ; preds = %2, %2
  %25 = load ptr, ptr %5, align 8
  store i8 1, ptr %25, align 1
  %26 = getelementptr inbounds %"class.(anonymous namespace)::Helper", ptr %10, i32 0, i32 1
  %27 = load ptr, ptr %26, align 8
  call void @_ZN10cmPolicies22GetRequiredPolicyErrorB5cxx11ENS_8PolicyIDE(ptr dead_on_unwind writable sret(%"class.std::__cxx11::basic_string") align 8 %9, i32 noundef 6)
  invoke void @_ZNK10cmMakefile12IssueMessageE11MessageTypeRKNSt7__cxx1112basic_stringIcSt11char_traitsIcESaIcEEE(ptr noundef nonnull align 8 dereferenceable(3520) %27, i32 noundef 2, ptr noundef nonnull align 8 dereferenceable(32) %9)
          to label %28 unwind label %29

28:                                               ; preds = %24
  call void @_ZNSt7__cxx1112basic_stringIcSt11char_traitsIcESaIcEED1Ev(ptr noundef nonnull align 8 dereferenceable(32) %9) #3
  br label %33

29:                                               ; preds = %24
  %30 = landingpad { ptr, i32 }
          cleanup
  %31 = extractvalue { ptr, i32 } %30, 0
  store ptr %31, ptr %7, align 8
  %32 = extractvalue { ptr, i32 } %30, 1
  store i32 %32, ptr %8, align 4
  call void @_ZNSt7__cxx1112basic_stringIcSt11char_traitsIcESaIcEED1Ev(ptr noundef nonnull align 8 dereferenceable(32) %9) #3
  br label %36

33:                                               ; preds = %28, %23, %2
  store i1 false, ptr %3, align 1
  br label %34

34:                                               ; preds = %33, %18
  %35 = load i1, ptr %3, align 1
  ret i1 %35

36:                                               ; preds = %29, %19
  %37 = load ptr, ptr %7, align 8
  %38 = load i32, ptr %8, align 4
  %39 = insertvalue { ptr, i32 } poison, ptr %37, 0
  %40 = insertvalue { ptr, i32 } %39, i32 %38, 1
  resume { ptr, i32 } %40
}