; Function Attrs: mustprogress uwtable
define internal fastcc noundef zeroext i1 @_ZNK12_GLOBAL__N_16Helper12CheckCMP0006ERb(ptr nocapture noundef nonnull readonly align 8 dereferenceable(48) %0, ptr nocapture noundef nonnull writeonly align 1 dereferenceable(1) %1) unnamed_addr #5 align 2 personality ptr @__gxx_personality_v0 {
  %3 = alloca %"class.std::__cxx11::basic_string", align 8
  %4 = alloca %"class.std::__cxx11::basic_string", align 8
  %5 = getelementptr inbounds i8, ptr %0, i64 8
  %6 = load ptr, ptr %5, align 8
  %7 = tail call noundef i32 @_ZNK10cmMakefile15GetPolicyStatusEN10cmPolicies8PolicyIDEb(ptr noundef nonnull align 8 dereferenceable(3520) %6, i32 noundef 6, i1 noundef zeroext false)
  switch i32 %7, label %18 [
    i32 1, label %8
    i32 0, label %19
    i32 4, label %13
    i32 3, label %13
  ]

8:                                                ; preds = %2
  %9 = load ptr, ptr %5, align 8
  call void @_ZN10cmPolicies16GetPolicyWarningB5cxx11ENS_8PolicyIDE(ptr dead_on_unwind nonnull writable sret(%"class.std::__cxx11::basic_string") align 8 %3, i32 noundef 6)
  invoke void @_ZNK10cmMakefile12IssueMessageE11MessageTypeRKNSt7__cxx1112basic_stringIcSt11char_traitsIcESaIcEEE(ptr noundef nonnull align 8 dereferenceable(3520) %9, i32 noundef 0, ptr noundef nonnull align 8 dereferenceable(32) %3)
          to label %10 unwind label %11

10:                                               ; preds = %8
  call void @_ZNSt7__cxx1112basic_stringIcSt11char_traitsIcESaIcEED1Ev(ptr noundef nonnull align 8 dereferenceable(32) %3) #19
  br label %19

11:                                               ; preds = %8
  %12 = landingpad { ptr, i32 }
          cleanup
  br label %20

13:                                               ; preds = %2, %2
  store i8 1, ptr %1, align 1
  %14 = load ptr, ptr %5, align 8
  call void @_ZN10cmPolicies22GetRequiredPolicyErrorB5cxx11ENS_8PolicyIDE(ptr dead_on_unwind nonnull writable sret(%"class.std::__cxx11::basic_string") align 8 %4, i32 noundef 6)
  invoke void @_ZNK10cmMakefile12IssueMessageE11MessageTypeRKNSt7__cxx1112basic_stringIcSt11char_traitsIcESaIcEEE(ptr noundef nonnull align 8 dereferenceable(3520) %14, i32 noundef 2, ptr noundef nonnull align 8 dereferenceable(32) %4)
          to label %15 unwind label %16

15:                                               ; preds = %13
  call void @_ZNSt7__cxx1112basic_stringIcSt11char_traitsIcESaIcEED1Ev(ptr noundef nonnull align 8 dereferenceable(32) %4) #19
  br label %18

16:                                               ; preds = %13
  %17 = landingpad { ptr, i32 }
          cleanup
  br label %20

18:                                               ; preds = %15, %2
  br label %19

19:                                               ; preds = %2, %10, %18
  %.05 = phi i1 [ false, %18 ], [ true, %10 ], [ true, %2 ]
  ret i1 %.05

20:                                               ; preds = %16, %11
  %.sink = phi ptr [ %4, %16 ], [ %3, %11 ]
  %.pn = phi { ptr, i32 } [ %17, %16 ], [ %12, %11 ]
  call void @_ZNSt7__cxx1112basic_stringIcSt11char_traitsIcESaIcEED1Ev(ptr noundef nonnull align 8 dereferenceable(32) %.sink) #19
  resume { ptr, i32 } %.pn
}